; Function Attrs: mustprogress uwtable
define hidden void @_ZNK2cv16SunRasterDecoder10newDecoderEv(ptr dead_on_unwind noalias writable writeonly sret(%"struct.cv::Ptr") align 8 captures(none) initializes((0, 16)) %0, ptr nonnull readnone align 8 captures(none) %1) unnamed_addr #3 align 2 personality ptr @__gxx_personality_v0 {
_ZNSt12__shared_ptrIN2cv16SunRasterDecoderELN9__gnu_cxx12_Lock_policyE2EED2Ev.exit:
  %2 = alloca %"class.std::allocator.28", align 1
  %3 = alloca %"class.std::shared_ptr.17", align 8
  call void @llvm.lifetime.start.p0(i64 16, ptr nonnull %3) #16, !noalias !70
  tail call void @llvm.experimental.noalias.scope.decl(metadata !73)
  call void @llvm.lifetime.start.p0(i64 1, ptr nonnull %2) #16, !noalias !76
  store ptr null, ptr %3, align 8, !tbaa !77, !alias.scope !73, !noalias !70
  %4 = getelementptr inbounds nuw i8, ptr %3, i64 8
  call void @_ZNSt14__shared_countILN9__gnu_cxx12_Lock_policyE2EEC2IN2cv16SunRasterDecoderESaIvEJEEERPT_St20_Sp_alloc_shared_tagIT0_EDpOT1_(ptr noundef nonnull align 8 dereferenceable(8) %4, ptr noundef nonnull align 8 dereferenceable(16) %3, ptr nonnull %2), !noalias !70
  call void @llvm.lifetime.end.p0(i64 1, ptr nonnull %2) #16, !noalias !76
  %5 = load ptr, ptr %3, align 8, !tbaa !77, !noalias !70
  %6 = load ptr, ptr %4, align 8, !tbaa !82, !noalias !70
  call void @llvm.lifetime.end.p0(i64 16, ptr nonnull %3) #16, !noalias !70
  store ptr %5, ptr %0, align 8, !tbaa !83
  %7 = getelementptr inbounds nuw i8, ptr %0, i64 8
  store ptr %6, ptr %7, align 8, !tbaa !82
  ret void
}